target datalayout = "e-m:e-p270:32:32-p271:32:32-p272:64:64-i64:64-i128:128-f80:128-n8:16:32:64-S128"
target triple = "x86_64-pc-linux-gnu"

; Function Attrs: alwaysinline nounwind
define internal ptr @memset.inline(ptr nonnull %0, i32 %1, i64 %2) #1 {
  %4 = alloca ptr, align 8
  %5 = alloca i32, align 4
  %6 = alloca i64, align 8
  store ptr %0, ptr %4, align 8
  store i32 %1, ptr %5, align 4
  store i64 %2, ptr %6, align 8
  %7 = load ptr, ptr %4, align 8
  %8 = load i32, ptr %5, align 4
  %9 = load i64, ptr %6, align 8
  %10 = load ptr, ptr %4, align 8
  %11 = call i64 @llvm.objectsize.i64.p0(ptr %10, i1 false, i1 true, i1 true)
  %12 = call ptr @__memset_chk(ptr noundef %7, i32 noundef %8, i64 noundef %9, i64 noundef %11) #9
  ret ptr %12
}

; Function Attrs: nounwind ssp uwtable
define dso_local i32 @crypto_pwhash_argon2i(ptr noundef nonnull %0, i64 noundef %1, ptr noundef nonnull %2, i64 noundef %3, ptr noundef nonnull %4, i64 noundef %5, i64 noundef %6, i32 noundef %7) #0 {
  %9 = alloca i32, align 4
  %10 = alloca ptr, align 8
  %11 = alloca i64, align 8
  %12 = alloca ptr, align 8
  %13 = alloca i64, align 8
  %14 = alloca ptr, align 8
  %15 = alloca i64, align 8
  %16 = alloca i64, align 8
  %17 = alloca i32, align 4
  store ptr %0, ptr %10, align 8
  store i64 %1, ptr %11, align 8
  store ptr %2, ptr %12, align 8
  store i64 %3, ptr %13, align 8
  store ptr %4, ptr %14, align 8
  store i64 %5, ptr %15, align 8
  store i64 %6, ptr %16, align 8
  store i32 %7, ptr %17, align 4
  %18 = load ptr, ptr %10, align 8
  %19 = load i64, ptr %11, align 8
  %20 = call ptr @memset.inline(ptr noundef %18, i32 noundef 0, i64 noundef %19) #9
  %21 = load i64, ptr %11, align 8
  %22 = icmp ugt i64 %21, 4294967295
  br i1 %22, label %23, label %25

23:                                               ; preds = %8
  %24 = call ptr @__errno_location() #10
  store i32 27, ptr %24, align 4
  store i32 -1, ptr %9, align 4
  br label %77

25:                                               ; preds = %8
  %26 = load i64, ptr %11, align 8
  %27 = icmp ult i64 %26, 16
  br i1 %27, label %28, label %30

28:                                               ; preds = %25
  %29 = call ptr @__errno_location() #10
  store i32 22, ptr %29, align 4
  store i32 -1, ptr %9, align 4
  br label %77

30:                                               ; preds = %25
  %31 = load i64, ptr %13, align 8
  %32 = icmp ugt i64 %31, 4294967295
  br i1 %32, label %39, label %33

33:                                               ; preds = %30
  %34 = load i64, ptr %15, align 8
  %35 = icmp ugt i64 %34, 4294967295
  br i1 %35, label %39, label %36

36:                                               ; preds = %33
  %37 = load i64, ptr %16, align 8
  %38 = icmp ugt i64 %37, 4398046510080
  br i1 %38, label %39, label %41

39:                                               ; preds = %36, %33, %30
  %40 = call ptr @__errno_location() #10
  store i32 27, ptr %40, align 4
  store i32 -1, ptr %9, align 4
  br label %77

41:                                               ; preds = %36
  %42 = load i64, ptr %13, align 8
  %43 = icmp ult i64 %42, 0
  br i1 %43, label %50, label %44

44:                                               ; preds = %41
  %45 = load i64, ptr %15, align 8
  %46 = icmp ult i64 %45, 3
  br i1 %46, label %50, label %47

47:                                               ; preds = %44
  %48 = load i64, ptr %16, align 8
  %49 = icmp ult i64 %48, 8192
  br i1 %49, label %50, label %52

50:                                               ; preds = %47, %44, %41
  %51 = call ptr @__errno_location() #10
  store i32 22, ptr %51, align 4
  store i32 -1, ptr %9, align 4
  br label %77

52:                                               ; preds = %47
  %53 = load ptr, ptr %10, align 8
  %54 = load ptr, ptr %12, align 8
  %55 = icmp eq ptr %53, %54
  br i1 %55, label %56, label %58

56:                                               ; preds = %52
  %57 = call ptr @__errno_location() #10
  store i32 22, ptr %57, align 4
  store i32 -1, ptr %9, align 4
  br label %77

58:                                               ; preds = %52
  %59 = load i32, ptr %17, align 4
  switch i32 %59, label %75 [
    i32 1, label %60
  ]

60:                                               ; preds = %58
  %61 = load i64, ptr %15, align 8
  %62 = trunc i64 %61 to i32
  %63 = load i64, ptr %16, align 8
  %64 = udiv i64 %63, 1024
  %65 = trunc i64 %64 to i32
  %66 = load ptr, ptr %12, align 8
  %67 = load i64, ptr %13, align 8
  %68 = load ptr, ptr %14, align 8
  %69 = load ptr, ptr %10, align 8
  %70 = load i64, ptr %11, align 8
  %71 = call i32 @_sodium_argon2i_hash_raw(i32 noundef %62, i32 noundef %65, i32 noundef 1, ptr noundef %66, i64 noundef %67, ptr noundef %68, i64 noundef 16, ptr noundef %69, i64 noundef %70)
  %72 = icmp ne i32 %71, 0
  br i1 %72, label %73, label %74

73:                                               ; preds = %60
  store i32 -1, ptr %9, align 4
  br label %77

74:                                               ; preds = %60
  store i32 0, ptr %9, align 4
  br label %77

75:                                               ; preds = %58
  %76 = call ptr @__errno_location() #10
  store i32 22, ptr %76, align 4
  store i32 -1, ptr %9, align 4
  br label %77

77:                                               ; preds = %75, %74, %73, %56, %50, %39, %28, %23
  %78 = load i32, ptr %9, align 4
  ret i32 %78
}