; Function Attrs: nounwind ssp uwtable
define dso_local range(i32 -1, 1) i32 @crypto_pwhash_argon2i(ptr noundef nonnull %0, i64 noundef %1, ptr noundef nonnull %2, i64 noundef %3, ptr noundef nonnull %4, i64 noundef %5, i64 noundef %6, i32 noundef %7) local_unnamed_addr #1 {
  tail call void @llvm.memset.p0.i64(ptr noundef nonnull align 1 %0, i8 noundef 0, i64 noundef %1, i1 noundef false) #9
  %9 = icmp ugt i64 %1, 4294967295
  br i1 %9, label %10, label %12

10:                                               ; preds = %8
  %11 = tail call ptr @__errno_location() #10
  store i32 27, ptr %11, align 4
  br label %38

12:                                               ; preds = %8
  %13 = icmp samesign ult i64 %1, 16
  br i1 %13, label %14, label %16

14:                                               ; preds = %12
  %15 = tail call ptr @__errno_location() #10
  store i32 22, ptr %15, align 4
  br label %38

16:                                               ; preds = %12
  %17 = or i64 %5, %3
  %or.cond = icmp ugt i64 %17, 4294967295
  %18 = icmp ugt i64 %6, 4398046510080
  %or.cond3 = or i1 %or.cond, %18
  br i1 %or.cond3, label %19, label %21

19:                                               ; preds = %16
  %20 = tail call ptr @__errno_location() #10
  store i32 27, ptr %20, align 4
  br label %38

21:                                               ; preds = %16
  %22 = icmp samesign ult i64 %5, 3
  %23 = icmp samesign ult i64 %6, 8192
  %or.cond7 = or i1 %22, %23
  br i1 %or.cond7, label %24, label %26

24:                                               ; preds = %21
  %25 = tail call ptr @__errno_location() #10
  store i32 22, ptr %25, align 4
  br label %38

26:                                               ; preds = %21
  %27 = icmp eq ptr %0, %2
  br i1 %27, label %28, label %30

28:                                               ; preds = %26
  %29 = tail call ptr @__errno_location() #10
  store i32 22, ptr %29, align 4
  br label %38

30:                                               ; preds = %26
  %cond = icmp eq i32 %7, 1
  br i1 %cond, label %31, label %36

31:                                               ; preds = %30
  %32 = trunc nuw i64 %5 to i32
  %33 = lshr i64 %6, 10
  %34 = trunc nuw i64 %33 to i32
  %35 = tail call i32 @_sodium_argon2i_hash_raw(i32 noundef %32, i32 noundef %34, i32 noundef 1, ptr noundef nonnull %2, i64 noundef %3, ptr noundef nonnull %4, i64 noundef 16, ptr noundef nonnull %0, i64 noundef %1) #9
  %.not = icmp ne i32 %35, 0
  %. = sext i1 %.not to i32
  br label %38

36:                                               ; preds = %30
  %37 = tail call ptr @__errno_location() #10
  store i32 22, ptr %37, align 4
  br label %38

38:                                               ; preds = %31, %36, %28, %24, %19, %14, %10
  %.0 = phi i32 [ -1, %10 ], [ -1, %14 ], [ -1, %19 ], [ -1, %24 ], [ -1, %28 ], [ -1, %36 ], [ %., %31 ]
  ret i32 %.0
}